; Function Attrs: null_pointer_is_valid sspstrong uwtable
define internal noundef zeroext i1 @dissect_vssmonitoring(ptr noundef %0, ptr noundef readonly captures(none) %1, ptr noundef %2, ptr readnone captures(none) %3) #0 {
  %5 = alloca %struct.nstime_t, align 8
  %6 = alloca i32, align 4
  %7 = load i8, ptr @vss_two_byte_portstamps, align 1, !range !6, !noundef !7
  %8 = trunc nuw i8 %7 to i1
  %9 = select i1 %8, i32 2, i32 1
  call void @llvm.lifetime.start.p0(i64 16, ptr nonnull %5) #4
  call void @llvm.lifetime.start.p0(i64 4, ptr nonnull %6) #4
  store i32 0, ptr %6, align 4
  %10 = tail call i32 @tvb_reported_length(ptr noundef %0)
  %11 = or disjoint i32 %9, 12
  %12 = icmp ugt i32 %10, %11
  br i1 %12, label %.thread71, label %13

13:                                               ; preds = %4
  %14 = and i32 %10, 3
  %.not = icmp eq i32 %14, 0
  %.not56 = icmp eq i32 %14, %9
  %or.cond58 = select i1 %.not, i1 true, i1 %.not56
  br i1 %or.cond58, label %15, label %.thread71

15:                                               ; preds = %13
  %16 = icmp samesign ult i32 %10, 8
  br i1 %16, label %39, label %17

17:                                               ; preds = %15
  %18 = tail call i32 @tvb_get_ntohl(ptr noundef %0, i32 noundef 0)
  %19 = zext i32 %18 to i64
  store i64 %19, ptr %5, align 8
  %20 = tail call i32 @tvb_get_ntohl(ptr noundef %0, i32 noundef 4)
  %21 = getelementptr inbounds nuw i8, ptr %5, i64 8
  %22 = lshr i32 %20, 30
  %23 = and i32 %20, 1073741823
  store i32 %23, ptr %21, align 8
  %24 = icmp eq i32 %18, 0
  br i1 %24, label %.thread71, label %25

25:                                               ; preds = %17
  %26 = icmp ugt i32 %18, 3600
  br i1 %26, label %27, label %38

27:                                               ; preds = %25
  %28 = getelementptr inbounds nuw i8, ptr %1, i64 24
  %29 = load i64, ptr %28, align 8
  %30 = icmp slt i64 %29, %19
  %31 = icmp samesign ugt i32 %23, 999999999
  br i1 %30, label %32, label %35

32:                                               ; preds = %27
  %33 = sub i64 %19, %29
  %34 = icmp sgt i64 %33, 2592000
  %or.cond76 = select i1 %34, i1 true, i1 %31
  br i1 %or.cond76, label %.thread71, label %42

35:                                               ; preds = %27
  %36 = sub nsw i64 %29, %19
  %37 = icmp sgt i64 %36, 2592000
  %or.cond77 = select i1 %37, i1 true, i1 %31
  br i1 %or.cond77, label %.thread71, label %42

38:                                               ; preds = %25
  %.old.old = icmp samesign ugt i32 %23, 999999999
  br i1 %.old.old, label %.thread71, label %42

39:                                               ; preds = %15
  %40 = load i8, ptr @vss_dissect_portstamping_only, align 1, !range !6, !noundef !7
  %41 = trunc nuw i8 %40 to i1
  %.not59 = xor i1 %41, true
  %or.cond60 = or i1 %.not, %.not59
  br i1 %or.cond60, label %.thread71, label %42

42:                                               ; preds = %35, %32, %39, %38
  %.045 = phi i32 [ %22, %38 ], [ 0, %39 ], [ %22, %32 ], [ %22, %35 ]
  %.not78 = icmp eq ptr %2, null
  br i1 %.not78, label %.thread71, label %43

43:                                               ; preds = %42
  %44 = load i32, ptr @proto_vssmonitoring, align 4
  %45 = and i32 %10, 11
  %46 = tail call ptr @proto_tree_add_item(ptr noundef nonnull %2, i32 noundef %44, ptr noundef %0, i32 noundef 0, i32 noundef %45, i32 noundef 0)
  %47 = load i32, ptr @ett_vssmonitoring, align 4
  %48 = tail call ptr @proto_item_add_subtree(ptr noundef %46, i32 noundef %47)
  br i1 %16, label %65, label %49

49:                                               ; preds = %43
  %50 = load i32, ptr @hf_vssmonitoring_time, align 4
  %51 = call ptr @proto_tree_add_time(ptr noundef %48, i32 noundef %50, ptr noundef %0, i32 noundef 0, i32 noundef 8, ptr noundef nonnull %5)
  %52 = load i32, ptr @hf_vssmonitoring_clksrc, align 4
  %53 = call ptr @proto_tree_add_uint(ptr noundef %48, i32 noundef %52, ptr noundef %0, i32 noundef 4, i32 noundef 1, i32 noundef %.045)
  %54 = call ptr @localtime(ptr noundef nonnull %5) #4
  %.not57 = icmp eq ptr %54, null
  br i1 %.not57, label %64, label %55

55:                                               ; preds = %49
  %56 = getelementptr inbounds nuw i8, ptr %54, i64 8
  %57 = load i32, ptr %56, align 8
  %58 = getelementptr inbounds nuw i8, ptr %54, i64 4
  %59 = load i32, ptr %58, align 4
  %60 = load i32, ptr %54, align 8
  %61 = getelementptr inbounds nuw i8, ptr %5, i64 8
  %62 = load i32, ptr %61, align 8
  %63 = sext i32 %62 to i64
  call void (ptr, ptr, ...) @proto_item_append_text(ptr noundef %46, ptr noundef nonnull @.str.27, i32 noundef %57, i32 noundef %59, i32 noundef %60, i64 noundef %63)
  br label %65

64:                                               ; preds = %49
  call void (ptr, ptr, ...) @proto_item_append_text(ptr noundef %46, ptr noundef nonnull @.str.28)
  br label %65

65:                                               ; preds = %43, %64, %55
  %.048 = phi i32 [ 0, %43 ], [ 8, %55 ], [ 8, %64 ]
  br i1 %.not56, label %66, label %.thread71

66:                                               ; preds = %65
  %67 = load i32, ptr @hf_vssmonitoring_srcport, align 4
  %68 = call ptr @proto_tree_add_item_ret_uint(ptr noundef %48, i32 noundef %67, ptr noundef %0, i32 noundef %.048, i32 noundef %9, i32 noundef 0, ptr noundef nonnull %6)
  %69 = load i32, ptr %6, align 4
  call void (ptr, ptr, ...) @proto_item_append_text(ptr noundef %46, ptr noundef nonnull @.str.29, i32 noundef %69)
  br label %.thread71

.thread71:                                        ; preds = %42, %65, %66, %39, %38, %35, %32, %17, %13, %4
  %.0 = phi i1 [ false, %4 ], [ false, %13 ], [ false, %17 ], [ false, %32 ], [ false, %35 ], [ false, %38 ], [ false, %39 ], [ true, %66 ], [ true, %65 ], [ true, %42 ]
  call void @llvm.lifetime.end.p0(i64 4, ptr nonnull %6) #4
  call void @llvm.lifetime.end.p0(i64 16, ptr nonnull %5) #4
  ret i1 %.0
}